target datalayout = "e-m:e-p270:32:32-p271:32:32-p272:64:64-i64:64-i128:128-f80:128-n8:16:32:64-S128"
target triple = "x86_64-pc-linux-gnu"

%struct.H5EA_hdr_t = type { %struct.H5C_cache_entry_t, %struct.H5EA_create_t, i64, %struct.H5EA_stat_t, %struct.anon.1, i64, i64, i64, ptr, i64, i8, i64, i64, i8, i64, ptr, i64, ptr, i8, ptr, ptr }
%struct.H5C_cache_entry_t = type { ptr, i64, i64, ptr, i8, ptr, i8, i8, i8, i8, i32, i8, i8, i8, i8, i8, i32, ptr, i32, i32, i32, i32, i32, i8, i8, ptr, ptr, ptr, ptr, ptr, ptr, i8, i32, i8, i64, ptr, i64, i64, i32, i8, i32, i32, i8, ptr, ptr, ptr }
%struct.H5EA_create_t = type { ptr, i8, i8, i8, i8, i8, i8 }
%struct.H5EA_stat_t = type { %struct.anon, %struct.anon.0 }
%struct.anon = type { i64, i64, i64 }
%struct.anon.0 = type { i64, i64, i64, i64, i64, i64 }
%struct.anon.1 = type { i64, ptr }
%struct.H5EA_t = type { ptr, ptr }

@H5EA_init_g = global i8 0, align 1
@H5_libterm_g = external global i8, align 1
@.str = private unnamed_addr constant [98 x i8] c"generated/home/dtcxzyw/WorkSpace/Projects/compilers/llvm-opt-benchmark/bench/hdf5/hdf5/src/H5EA.c\00", align 1
@H5E_EARRAY_g = external global i64, align 8
@H5E_CANTSET_g = external global i64, align 8
@__func__.H5EA_depend = private unnamed_addr constant [12 x i8] c"H5EA_depend\00", align 1
@.str.8 = private unnamed_addr constant [49 x i8] c"unable to add extensible array as child of proxy\00", align 1

; Function Attrs: nounwind uwtable
define i32 @H5EA_depend(ptr noundef %0, ptr noundef %1) #0 {
  %3 = alloca ptr, align 8
  %4 = alloca ptr, align 8
  %5 = alloca ptr, align 8
  %6 = alloca i32, align 4
  %7 = alloca i8, align 1
  store ptr %0, ptr %3, align 8, !tbaa !11
  store ptr %1, ptr %4, align 8, !tbaa !94
  call void @llvm.lifetime.start.p0(i64 8, ptr %5) #6
  %8 = load ptr, ptr %3, align 8, !tbaa !11
  %9 = getelementptr inbounds nuw %struct.H5EA_t, ptr %8, i32 0, i32 0
  %10 = load ptr, ptr %9, align 8, !tbaa !40
  store ptr %10, ptr %5, align 8, !tbaa !19
  call void @llvm.lifetime.start.p0(i64 4, ptr %6) #6
  store i32 0, ptr %6, align 4, !tbaa !43
  call void @llvm.lifetime.start.p0(i64 1, ptr %7) #6
  store i8 0, ptr %7, align 1, !tbaa !13
  %11 = load i8, ptr @H5EA_init_g, align 1, !tbaa !13, !range !15, !noundef !16
  %12 = trunc i8 %11 to i1
  br i1 %12, label %17, label %13

13:                                               ; preds = %2
  %14 = load i8, ptr @H5_libterm_g, align 1, !tbaa !13, !range !15, !noundef !16
  %15 = trunc i8 %14 to i1
  %16 = xor i1 %15, true
  br label %17

17:                                               ; preds = %13, %2
  %18 = phi i1 [ false, %2 ], [ %16, %13 ]
  %19 = xor i1 %18, true
  %20 = xor i1 %19, true
  %21 = zext i1 %20 to i32
  %22 = sext i32 %21 to i64
  %23 = call i64 @llvm.expect.i64(i64 %22, i64 0)
  %24 = icmp ne i64 %23, 0
  br i1 %24, label %25, label %26

25:                                               ; preds = %17
  store i8 1, ptr @H5EA_init_g, align 1, !tbaa !13
  br label %26

26:                                               ; preds = %25, %17
  %27 = load i8, ptr @H5EA_init_g, align 1, !tbaa !13, !range !15, !noundef !16
  %28 = trunc i8 %27 to i1
  br i1 %28, label %33, label %29

29:                                               ; preds = %26
  %30 = load i8, ptr @H5_libterm_g, align 1, !tbaa !13, !range !15, !noundef !16
  %31 = trunc i8 %30 to i1
  %32 = xor i1 %31, true
  br label %33

33:                                               ; preds = %29, %26
  %34 = phi i1 [ true, %26 ], [ %32, %29 ]
  %35 = xor i1 %34, true
  %36 = xor i1 %35, true
  %37 = zext i1 %36 to i32
  %38 = sext i32 %37 to i64
  %39 = call i64 @llvm.expect.i64(i64 %38, i64 1)
  %40 = icmp ne i64 %39, 0
  br i1 %40, label %41, label %86

41:                                               ; preds = %33
  %42 = load ptr, ptr %5, align 8, !tbaa !19
  %43 = getelementptr inbounds nuw %struct.H5EA_hdr_t, ptr %42, i32 0, i32 20
  %44 = load ptr, ptr %43, align 8, !tbaa !95
  %45 = icmp eq ptr null, %44
  br i1 %45, label %46, label %84

46:                                               ; preds = %41
  %47 = load ptr, ptr %3, align 8, !tbaa !11
  %48 = getelementptr inbounds nuw %struct.H5EA_t, ptr %47, i32 0, i32 1
  %49 = load ptr, ptr %48, align 8, !tbaa !42
  %50 = load ptr, ptr %5, align 8, !tbaa !19
  %51 = getelementptr inbounds nuw %struct.H5EA_hdr_t, ptr %50, i32 0, i32 8
  store ptr %49, ptr %51, align 8, !tbaa !44
  %52 = load ptr, ptr %4, align 8, !tbaa !94
  %53 = load ptr, ptr %5, align 8, !tbaa !19
  %54 = getelementptr inbounds nuw %struct.H5EA_hdr_t, ptr %53, i32 0, i32 8
  %55 = load ptr, ptr %54, align 8, !tbaa !44
  %56 = load ptr, ptr %5, align 8, !tbaa !19
  %57 = getelementptr inbounds nuw %struct.H5EA_hdr_t, ptr %56, i32 0, i32 19
  %58 = load ptr, ptr %57, align 8, !tbaa !96
  %59 = call i32 @H5AC_proxy_entry_add_child(ptr noundef %52, ptr noundef %55, ptr noundef %58)
  %60 = icmp slt i32 %59, 0
  br i1 %60, label %61, label %80

61:                                               ; preds = %46
  br label %62

62:                                               ; preds = %61
  br label %63

63:                                               ; preds = %62
  br label %64

64:                                               ; preds = %63
  %65 = load i64, ptr @H5E_EARRAY_g, align 8, !tbaa !17
  %66 = load i64, ptr @H5E_CANTSET_g, align 8, !tbaa !17
  %67 = call i32 (ptr, ptr, i32, i64, i64, ptr, ...) @H5E_printf_stack(ptr noundef @.str, ptr noundef @__func__.H5EA_depend, i32 noundef 801, i64 noundef %65, i64 noundef %66, ptr noundef @.str.8)
  br label %68

68:                                               ; preds = %64
  br label %69

69:                                               ; preds = %68
  store i8 1, ptr %7, align 1, !tbaa !13
  %70 = load i8, ptr %7, align 1, !tbaa !13, !range !15, !noundef !16
  %71 = trunc i8 %70 to i1
  %72 = zext i1 %71 to i8
  store i8 %72, ptr %7, align 1, !tbaa !13
  br label %73

73:                                               ; preds = %69
  br label %74

74:                                               ; preds = %73
  br label %75

75:                                               ; preds = %74
  store i32 -1, ptr %6, align 4, !tbaa !43
  br label %85

76:                                               ; No predecessors!
  br label %77

77:                                               ; preds = %76
  br label %78

78:                                               ; preds = %77
  br label %79

79:                                               ; preds = %78
  br label %80

80:                                               ; preds = %79, %46
  %81 = load ptr, ptr %4, align 8, !tbaa !94
  %82 = load ptr, ptr %5, align 8, !tbaa !19
  %83 = getelementptr inbounds nuw %struct.H5EA_hdr_t, ptr %82, i32 0, i32 20
  store ptr %81, ptr %83, align 8, !tbaa !95
  br label %84

84:                                               ; preds = %80, %41
  br label %85

85:                                               ; preds = %84, %75
  br label %86

86:                                               ; preds = %85, %33
  %87 = load i32, ptr %6, align 4, !tbaa !43
  call void @llvm.lifetime.end.p0(i64 1, ptr %7) #6
  call void @llvm.lifetime.end.p0(i64 4, ptr %6) #6
  call void @llvm.lifetime.end.p0(i64 8, ptr %5) #6
  ret i32 %87
}